; Function Attrs: uwtable
define void @_ZTv0_n376_N3nix11RemoteStore10getVersionB5cxx11Ev(ptr dead_on_unwind noalias writable sret(%"class.std::optional.67") align 8 %0, ptr nocapture noundef readonly %1) unnamed_addr #4 align 2 personality ptr @__gxx_personality_v0 {
  %3 = alloca %"struct.nix::RemoteStore::ConnectionHandle", align 8
  %4 = load ptr, ptr %1, align 8
  %5 = getelementptr inbounds i8, ptr %4, i64 -376
  %6 = load i64, ptr %5, align 8
  %7 = getelementptr inbounds i8, ptr %1, i64 %6
  tail call void @llvm.experimental.noalias.scope.decl(metadata !131)
  call void @llvm.lifetime.start.p0(i64 40, ptr nonnull %3)
  call void @_ZN3nix11RemoteStore13getConnectionEv(ptr dead_on_unwind nonnull writable sret(%"struct.nix::RemoteStore::ConnectionHandle") align 8 %3, ptr noundef nonnull align 8 dereferenceable(25) %7), !noalias !131
  %8 = getelementptr inbounds i8, ptr %3, i64 8
  %9 = load ptr, ptr %8, align 8, !noalias !131
  %10 = getelementptr inbounds i8, ptr %9, i64 208
  %11 = getelementptr inbounds i8, ptr %0, i64 32
  store i8 0, ptr %11, align 8, !alias.scope !131
  %12 = load i8, ptr %10, align 8, !noalias !131
  %13 = and i8 %12, 1
  %.not.i.i.i.i.i.i = icmp eq i8 %13, 0
  br i1 %.not.i.i.i.i.i.i, label %_ZN3nix11RemoteStore10getVersionB5cxx11Ev.exit, label %_ZNSt22_Optional_payload_baseINSt7__cxx1112basic_stringIcSt11char_traitsIcESaIcEEEE12_M_constructIJRKS5_EEEvDpOT_.exit.i.i.i.i.i.i

_ZNSt22_Optional_payload_baseINSt7__cxx1112basic_stringIcSt11char_traitsIcESaIcEEEE12_M_constructIJRKS5_EEEvDpOT_.exit.i.i.i.i.i.i: ; preds = %2
  %14 = getelementptr inbounds i8, ptr %9, i64 176
  invoke void @_ZNSt7__cxx1112basic_stringIcSt11char_traitsIcESaIcEEC2ERKS4_(ptr noundef nonnull align 8 dereferenceable(32) %0, ptr noundef nonnull align 8 dereferenceable(32) %14)
          to label %.noexc.i unwind label %15

.noexc.i:                                         ; preds = %_ZNSt22_Optional_payload_baseINSt7__cxx1112basic_stringIcSt11char_traitsIcESaIcEEEE12_M_constructIJRKS5_EEEvDpOT_.exit.i.i.i.i.i.i
  store i8 1, ptr %11, align 8, !alias.scope !131
  br label %_ZN3nix11RemoteStore10getVersionB5cxx11Ev.exit

15:                                               ; preds = %_ZNSt22_Optional_payload_baseINSt7__cxx1112basic_stringIcSt11char_traitsIcESaIcEEEE12_M_constructIJRKS5_EEEvDpOT_.exit.i.i.i.i.i.i
  %16 = landingpad { ptr, i32 }
          cleanup
  call void @_ZN3nix11RemoteStore16ConnectionHandleD1Ev(ptr noundef nonnull align 8 dereferenceable(33) %3) #29
  resume { ptr, i32 } %16

_ZN3nix11RemoteStore10getVersionB5cxx11Ev.exit:   ; preds = %2, %.noexc.i
  call void @_ZN3nix11RemoteStore16ConnectionHandleD1Ev(ptr noundef nonnull align 8 dereferenceable(33) %3) #29
  call void @llvm.lifetime.end.p0(i64 40, ptr nonnull %3)
  ret void
}